target datalayout = "e-m:e-p270:32:32-p271:32:32-p272:64:64-i64:64-i128:128-f80:128-n8:16:32:64-S128"
target triple = "x86_64-unknown-linux-gnu"

%"class.Imf_3_2::TypedAttribute" = type <{ %"class.Imf_3_2::Attribute", i32, [4 x i8] }>
%"class.Imf_3_2::Attribute" = type { ptr }

; Function Attrs: mustprogress uwtable
define linkonce_odr hidden void @_ZN7Imf_3_28StreamIO10writeCharsERNS_7OStreamEPKci(ptr noundef nonnull align 8 dereferenceable(40) %os, ptr noundef %c, i32 noundef %n) #4 comdat align 2 {
entry:
  %os.addr = alloca ptr, align 8
  %c.addr = alloca ptr, align 8
  %n.addr = alloca i32, align 4
  store ptr %os, ptr %os.addr, align 8
  store ptr %c, ptr %c.addr, align 8
  store i32 %n, ptr %n.addr, align 4
  %0 = load ptr, ptr %os.addr, align 8
  %1 = load ptr, ptr %c.addr, align 8
  %2 = load i32, ptr %n.addr, align 4
  %vtable = load ptr, ptr %0, align 8
  %vfn = getelementptr inbounds ptr, ptr %vtable, i64 2
  %3 = load ptr, ptr %vfn, align 8
  call void %3(ptr noundef nonnull align 8 dereferenceable(40) %0, ptr noundef %1, i32 noundef %2)
  ret void
}

; Function Attrs: mustprogress uwtable
define linkonce_odr hidden void @_ZN7Imf_3_23Xdr18writeUnsignedCharsINS_8StreamIOENS_7OStreamEEEvRT0_PKhi(ptr noundef nonnull align 8 dereferenceable(40) %out, ptr noundef %c, i32 noundef %n) #4 comdat {
entry:
  %out.addr = alloca ptr, align 8
  %c.addr = alloca ptr, align 8
  %n.addr = alloca i32, align 4
  store ptr %out, ptr %out.addr, align 8
  store ptr %c, ptr %c.addr, align 8
  store i32 %n, ptr %n.addr, align 4
  %0 = load ptr, ptr %out.addr, align 8
  %1 = load ptr, ptr %c.addr, align 8
  %2 = load i32, ptr %n.addr, align 4
  call void @_ZN7Imf_3_28StreamIO10writeCharsERNS_7OStreamEPKci(ptr noundef nonnull align 8 dereferenceable(40) %0, ptr noundef %1, i32 noundef %2)
  ret void
}

; Function Attrs: mustprogress uwtable
define linkonce_odr hidden void @_ZN7Imf_3_23Xdr5writeINS_8StreamIOENS_7OStreamEEEvRT0_h(ptr noundef nonnull align 8 dereferenceable(40) %out, i8 noundef zeroext %v) #4 comdat {
entry:
  %out.addr = alloca ptr, align 8
  %v.addr = alloca i8, align 1
  store ptr %out, ptr %out.addr, align 8
  store i8 %v, ptr %v.addr, align 1
  %0 = load ptr, ptr %out.addr, align 8
  call void @_ZN7Imf_3_23Xdr18writeUnsignedCharsINS_8StreamIOENS_7OStreamEEEvRT0_PKhi(ptr noundef nonnull align 8 dereferenceable(40) %0, ptr noundef %v.addr, i32 noundef 1)
  ret void
}

; Function Attrs: mustprogress uwtable
define void @_ZNK7Imf_3_214TypedAttributeINS_11CompressionEE12writeValueToERNS_7OStreamEi(ptr noundef nonnull align 8 dereferenceable(12) %this, ptr noundef nonnull align 8 dereferenceable(40) %os, i32 noundef %version) unnamed_addr #4 align 2 {
entry:
  %this.addr = alloca ptr, align 8
  %os.addr = alloca ptr, align 8
  %version.addr = alloca i32, align 4
  %tmp = alloca i8, align 1
  store ptr %this, ptr %this.addr, align 8
  store ptr %os, ptr %os.addr, align 8
  store i32 %version, ptr %version.addr, align 4
  %this1 = load ptr, ptr %this.addr, align 8
  %_value = getelementptr inbounds %"class.Imf_3_2::TypedAttribute", ptr %this1, i32 0, i32 1
  %0 = load i32, ptr %_value, align 8
  %conv = trunc i32 %0 to i8
  store i8 %conv, ptr %tmp, align 1
  %1 = load ptr, ptr %os.addr, align 8
  %2 = load i8, ptr %tmp, align 1
  call void @_ZN7Imf_3_23Xdr5writeINS_8StreamIOENS_7OStreamEEEvRT0_h(ptr noundef nonnull align 8 dereferenceable(40) %1, i8 noundef zeroext %2)
  ret void
}