; Function Attrs: mustprogress uwtable
define void @_ZNK7Imf_3_214TypedAttributeINS_11CompressionEE12writeValueToERNS_7OStreamEi(ptr nocapture noundef nonnull readonly align 8 dereferenceable(12) %this, ptr noundef nonnull align 8 dereferenceable(40) %os, i32 %version) unnamed_addr #3 align 2 {
entry:
  %v.addr.i = alloca i8, align 1
  %_value = getelementptr inbounds i8, ptr %this, i64 8
  %0 = load i32, ptr %_value, align 8
  %conv = trunc i32 %0 to i8
  call void @llvm.lifetime.start.p0(i64 1, ptr nonnull %v.addr.i)
  store i8 %conv, ptr %v.addr.i, align 1
  %vtable.i.i.i = load ptr, ptr %os, align 8
  %vfn.i.i.i = getelementptr inbounds i8, ptr %vtable.i.i.i, i64 16
  %1 = load ptr, ptr %vfn.i.i.i, align 8
  call void %1(ptr noundef nonnull align 8 dereferenceable(40) %os, ptr noundef nonnull %v.addr.i, i32 noundef 1)
  call void @llvm.lifetime.end.p0(i64 1, ptr nonnull %v.addr.i)
  ret void
}